Archive member included to satisfy reference by file (symbol)

/home/flerovium/devkitPro/libnds/lib/libnds7.a(libnds_exit.arm.o)
                              /home/flerovium/devkitPro/devkitARM/bin/../lib/gcc/arm-none-eabi/5.3.0/../../../../arm-none-eabi/lib/ds_arm7_crt0.o (__libnds_exit)
/home/flerovium/devkitPro/libnds/lib/libnds7.a(interrupts.o)
                              arm7.o (irqEnable)
/home/flerovium/devkitPro/libnds/lib/libnds7.a(intrwait.o)
                              arm7.o (swiWaitForVBlank)
/home/flerovium/devkitPro/libnds/lib/libnds7.a(interruptDispatcher.o)
                              /home/flerovium/devkitPro/libnds/lib/libnds7.a(interrupts.o) (IntrMain)
/home/flerovium/devkitPro/libnds/lib/libnds7.a(i2c.o)
                              /home/flerovium/devkitPro/libnds/lib/libnds7.a(interrupts.o) (i2cWriteRegister)
/home/flerovium/devkitPro/libnds/lib/libnds7.a(systemShutDown.o)
                              /home/flerovium/devkitPro/libnds/lib/libnds7.a(libnds_exit.arm.o) (systemShutDown)
/home/flerovium/devkitPro/libnds/lib/libnds7.a(spi.o)
                              /home/flerovium/devkitPro/libnds/lib/libnds7.a(interrupts.o) (writePowerManagement)
/home/flerovium/devkitPro/libnds/lib/libnds7.a(touch.o)
                              /home/flerovium/devkitPro/libnds/lib/libnds7.a(systemShutDown.o) (__dsimode)
/home/flerovium/devkitPro/libnds/lib/libnds7.a(biosCalls.o)
                              /home/flerovium/devkitPro/libnds/lib/libnds7.a(i2c.o) (swiDelay)
/home/flerovium/devkitPro/devkitARM/bin/../lib/gcc/arm-none-eabi/5.3.0/libgcc.a(_divsi3.o)
                              /home/flerovium/devkitPro/libnds/lib/libnds7.a(touch.o) (__aeabi_idiv)
/home/flerovium/devkitPro/devkitARM/bin/../lib/gcc/arm-none-eabi/5.3.0/libgcc.a(_dvmd_tls.o)
                              /home/flerovium/devkitPro/devkitARM/bin/../lib/gcc/arm-none-eabi/5.3.0/libgcc.a(_divsi3.o) (__aeabi_idiv0)
/home/flerovium/devkitPro/devkitARM/bin/../lib/gcc/arm-none-eabi/5.3.0/../../../../arm-none-eabi/lib/libg.a(lib_a-init.o)
                              /home/flerovium/devkitPro/devkitARM/bin/../lib/gcc/arm-none-eabi/5.3.0/../../../../arm-none-eabi/lib/ds_arm7_crt0.o (__libc_init_array)

Allocating common symbols
Common symbol       size              file

irqTableAUX         0xc8              /home/flerovium/devkitPro/libnds/lib/libnds7.a(interrupts.o)
irqTable            0xc8              /home/flerovium/devkitPro/libnds/lib/libnds7.a(interrupts.o)

Discarded input sections

 .text          0x0000000000000000        0x0 /home/flerovium/devkitPro/devkitARM/bin/../lib/gcc/arm-none-eabi/5.3.0/../../../../arm-none-eabi/lib/ds_arm7_crt0.o
 .data          0x0000000000000000        0x0 /home/flerovium/devkitPro/devkitARM/bin/../lib/gcc/arm-none-eabi/5.3.0/../../../../arm-none-eabi/lib/ds_arm7_crt0.o
 .bss           0x0000000000000000        0x0 /home/flerovium/devkitPro/devkitARM/bin/../lib/gcc/arm-none-eabi/5.3.0/../../../../arm-none-eabi/lib/ds_arm7_crt0.o
 .text          0x0000000000000000        0x0 /home/flerovium/devkitPro/devkitARM/bin/../lib/gcc/arm-none-eabi/5.3.0/crti.o
 .data          0x0000000000000000        0x0 /home/flerovium/devkitPro/devkitARM/bin/../lib/gcc/arm-none-eabi/5.3.0/crti.o
 .bss           0x0000000000000000        0x0 /home/flerovium/devkitPro/devkitARM/bin/../lib/gcc/arm-none-eabi/5.3.0/crti.o
 .data          0x0000000000000000        0x4 /home/flerovium/devkitPro/devkitARM/bin/../lib/gcc/arm-none-eabi/5.3.0/crtbegin.o
 .text          0x0000000000000000        0x0 arm7.o
 .data          0x0000000000000000        0x0 arm7.o
 .bss           0x0000000000000000        0x0 arm7.o
 .data          0x0000000000000000        0x0 /home/flerovium/devkitPro/libnds/lib/libnds7.a(libnds_exit.arm.o)
 .bss           0x0000000000000000        0x0 /home/flerovium/devkitPro/libnds/lib/libnds7.a(libnds_exit.arm.o)
 .data          0x0000000000000000        0x0 /home/flerovium/devkitPro/libnds/lib/libnds7.a(interrupts.o)
 .data          0x0000000000000000        0x0 /home/flerovium/devkitPro/libnds/lib/libnds7.a(intrwait.o)
 .bss           0x0000000000000000        0x0 /home/flerovium/devkitPro/libnds/lib/libnds7.a(intrwait.o)
 .data          0x0000000000000000        0x0 /home/flerovium/devkitPro/libnds/lib/libnds7.a(interruptDispatcher.o)
 .bss           0x0000000000000000        0x0 /home/flerovium/devkitPro/libnds/lib/libnds7.a(interruptDispatcher.o)
 .data          0x0000000000000000        0x0 /home/flerovium/devkitPro/libnds/lib/libnds7.a(i2c.o)
 .data          0x0000000000000000        0x0 /home/flerovium/devkitPro/libnds/lib/libnds7.a(systemShutDown.o)
 .bss           0x0000000000000000        0x0 /home/flerovium/devkitPro/libnds/lib/libnds7.a(systemShutDown.o)
 .data          0x0000000000000000        0x0 /home/flerovium/devkitPro/libnds/lib/libnds7.a(spi.o)
 .bss           0x0000000000000000        0x0 /home/flerovium/devkitPro/libnds/lib/libnds7.a(spi.o)
 .text          0x0000000000000000      0x6ec /home/flerovium/devkitPro/libnds/lib/libnds7.a(touch.o)
 .data          0x0000000000000000        0x1 /home/flerovium/devkitPro/libnds/lib/libnds7.a(touch.o)
 .data          0x0000000000000000        0x0 /home/flerovium/devkitPro/libnds/lib/libnds7.a(biosCalls.o)
 .bss           0x0000000000000000        0x0 /home/flerovium/devkitPro/libnds/lib/libnds7.a(biosCalls.o)
 .text          0x0000000000000000      0x148 /home/flerovium/devkitPro/devkitARM/bin/../lib/gcc/arm-none-eabi/5.3.0/libgcc.a(_divsi3.o)
 .data          0x0000000000000000        0x0 /home/flerovium/devkitPro/devkitARM/bin/../lib/gcc/arm-none-eabi/5.3.0/libgcc.a(_divsi3.o)
 .bss           0x0000000000000000        0x0 /home/flerovium/devkitPro/devkitARM/bin/../lib/gcc/arm-none-eabi/5.3.0/libgcc.a(_divsi3.o)
 .ARM.attributes
                0x0000000000000000       0x18 /home/flerovium/devkitPro/devkitARM/bin/../lib/gcc/arm-none-eabi/5.3.0/libgcc.a(_divsi3.o)
 .text          0x0000000000000000        0x4 /home/flerovium/devkitPro/devkitARM/bin/../lib/gcc/arm-none-eabi/5.3.0/libgcc.a(_dvmd_tls.o)
 .data          0x0000000000000000        0x0 /home/flerovium/devkitPro/devkitARM/bin/../lib/gcc/arm-none-eabi/5.3.0/libgcc.a(_dvmd_tls.o)
 .bss           0x0000000000000000        0x0 /home/flerovium/devkitPro/devkitARM/bin/../lib/gcc/arm-none-eabi/5.3.0/libgcc.a(_dvmd_tls.o)
 .ARM.attributes
                0x0000000000000000       0x18 /home/flerovium/devkitPro/devkitARM/bin/../lib/gcc/arm-none-eabi/5.3.0/libgcc.a(_dvmd_tls.o)
 .text          0x0000000000000000        0x0 /home/flerovium/devkitPro/devkitARM/bin/../lib/gcc/arm-none-eabi/5.3.0/../../../../arm-none-eabi/lib/libg.a(lib_a-init.o)
 .data          0x0000000000000000        0x0 /home/flerovium/devkitPro/devkitARM/bin/../lib/gcc/arm-none-eabi/5.3.0/../../../../arm-none-eabi/lib/libg.a(lib_a-init.o)
 .bss           0x0000000000000000        0x0 /home/flerovium/devkitPro/devkitARM/bin/../lib/gcc/arm-none-eabi/5.3.0/../../../../arm-none-eabi/lib/libg.a(lib_a-init.o)
 .text          0x0000000000000000        0x0 /home/flerovium/devkitPro/devkitARM/bin/../lib/gcc/arm-none-eabi/5.3.0/crtend.o
 .data          0x0000000000000000        0x0 /home/flerovium/devkitPro/devkitARM/bin/../lib/gcc/arm-none-eabi/5.3.0/crtend.o
 .bss           0x0000000000000000        0x0 /home/flerovium/devkitPro/devkitARM/bin/../lib/gcc/arm-none-eabi/5.3.0/crtend.o
 .text          0x0000000000000000        0x0 /home/flerovium/devkitPro/devkitARM/bin/../lib/gcc/arm-none-eabi/5.3.0/crtn.o
 .data          0x0000000000000000        0x0 /home/flerovium/devkitPro/devkitARM/bin/../lib/gcc/arm-none-eabi/5.3.0/crtn.o
 .bss           0x0000000000000000        0x0 /home/flerovium/devkitPro/devkitARM/bin/../lib/gcc/arm-none-eabi/5.3.0/crtn.o

Memory Configuration

Name             Origin             Length             Attributes
rom              0x0000000008000000 0x0000000002000000
iwram            0x00000000037f8000 0x0000000000018000
*default*        0x0000000000000000 0xffffffffffffffff

Linker script and memory map

                0x00000000037f8000                __iwram_start = ORIGIN (iwram)
                0x0000000003810000                __iwram_top = (ORIGIN (iwram) + 0x18000)
                0x000000000380ff00                __sp_irq = (__iwram_top - 0x100)
                0x000000000380fe00                __sp_svc = (__sp_irq - 0x100)
                0x000000000380fd00                __sp_usr = (__sp_svc - 0x100)
                0x0000000003fffff8                __irq_flags = 0x3fffff8
                0x0000000003ffffc0                __irq_flagsaux = 0x3ffffc0
                0x0000000003fffffc                __irq_vector = 0x3fffffc

.init           0x00000000037f8000       0xe8
                0x00000000037f8000                __text_start = .
 *(.init)
 .init          0x00000000037f8000       0xd0 /home/flerovium/devkitPro/devkitARM/bin/../lib/gcc/arm-none-eabi/5.3.0/../../../../arm-none-eabi/lib/ds_arm7_crt0.o
                0x00000000037f8000                _start
 .init          0x00000000037f80d0        0xc /home/flerovium/devkitPro/devkitARM/bin/../lib/gcc/arm-none-eabi/5.3.0/crti.o
                0x00000000037f80d0                _init
 .init          0x00000000037f80dc        0xc /home/flerovium/devkitPro/devkitARM/bin/../lib/gcc/arm-none-eabi/5.3.0/crtn.o
                0x00000000037f80e8                . = ALIGN (0x4)

.plt
 *(.plt)

.text           0x00000000037f80f0      0x990
 *(.text .stub .text.* .gnu.linkonce.t.*)
 .text          0x00000000037f80f0      0x108 /home/flerovium/devkitPro/devkitARM/bin/../lib/gcc/arm-none-eabi/5.3.0/crtbegin.o
 .text.startup  0x00000000037f81f8       0x48 arm7.o
                0x00000000037f81f8                main
 .text          0x00000000037f8240       0x58 /home/flerovium/devkitPro/libnds/lib/libnds7.a(libnds_exit.arm.o)
                0x00000000037f8240                systemErrorExit
                0x00000000037f8244                __libnds_exit
 .text          0x00000000037f8298      0x314 /home/flerovium/devkitPro/libnds/lib/libnds7.a(interrupts.o)
                0x00000000037f8298                irqDummy
                0x00000000037f82da                i2cIRQHandler
                0x00000000037f8330                setPowerButtonCB
                0x00000000037f8340                irqSet
                0x00000000037f839c                irqInitHandler
                0x00000000037f83d4                irqEnable
                0x00000000037f8438                irqDisable
                0x00000000037f84a0                irqClear
                0x00000000037f84c8                irqSetAUX
                0x00000000037f84f0                irqClearAUX
                0x00000000037f8518                irqDisableAUX
                0x00000000037f853c                irqEnableAUX
                0x00000000037f8560                irqInit
 .text          0x00000000037f85ac       0x54 /home/flerovium/devkitPro/libnds/lib/libnds7.a(intrwait.o)
                0x00000000037f85ac                swiWaitForVBlank
                0x00000000037f85bc                swiIntrWait
 .text          0x00000000037f8600       0xec /home/flerovium/devkitPro/libnds/lib/libnds7.a(interruptDispatcher.o)
                0x00000000037f8600                IntrMain
 .text          0x00000000037f86ec      0x1b0 /home/flerovium/devkitPro/libnds/lib/libnds7.a(i2c.o)
                0x00000000037f86fc                i2cDelay
                0x00000000037f8714                i2cStop
                0x00000000037f8754                i2cGetResult
                0x00000000037f876c                i2cGetData
                0x00000000037f8780                i2cSetDelay
                0x00000000037f8794                i2cSelectDevice
                0x00000000037f87b8                i2cSelectRegister
                0x00000000037f87dc                i2cWriteRegister
                0x00000000037f8838                i2cReadRegister
 .text          0x00000000037f889c       0x30 /home/flerovium/devkitPro/libnds/lib/libnds7.a(systemShutDown.o)
                0x00000000037f889c                systemShutDown
 .text          0x00000000037f88cc       0x88 /home/flerovium/devkitPro/libnds/lib/libnds7.a(spi.o)
                0x00000000037f88cc                writePowerManagement
                0x00000000037f8930                ledBlink
 *fill*         0x00000000037f8954        0xc ff
 .text          0x00000000037f8960       0x70 /home/flerovium/devkitPro/libnds/lib/libnds7.a(biosCalls.o)
                0x00000000037f8960                swiDelay
                0x00000000037f8964                swiSleep
                0x00000000037f8968                swiChangeSoundBias
                0x00000000037f896c                swiDivide
                0x00000000037f8970                swiRemainder
                0x00000000037f8976                swiDivMod
                0x00000000037f8982                swiCopy
                0x00000000037f8986                swiFastCopy
                0x00000000037f898a                swiSqrt
                0x00000000037f898e                swiCRC16
                0x00000000037f8992                swiIsDebugger
                0x00000000037f8996                swiUnpackBits
                0x00000000037f899a                swiDecompressLZSSWram
                0x00000000037f899e                swiDecompressLZSSVramNTR
                0x00000000037f89a2                swiDecompressLZSSVramTWL
                0x00000000037f89a6                swiDecompressHuffman
                0x00000000037f89aa                swiDecompressRLEWram
                0x00000000037f89ae                swiDecompressRLEVram
                0x00000000037f89b2                swiHalt
                0x00000000037f89b6                swiGetSineTable
                0x00000000037f89ba                swiGetPitchTable
                0x00000000037f89be                swiGetVolumeTable
                0x00000000037f89c2                swiSwitchToGBAMode
                0x00000000037f89c6                swiSetHaltCR
 .text.__libc_init_array
                0x00000000037f89d0       0x80 /home/flerovium/devkitPro/devkitARM/bin/../lib/gcc/arm-none-eabi/5.3.0/../../../../arm-none-eabi/lib/libg.a(lib_a-init.o)
                0x00000000037f89d0                __libc_init_array
 .text.__libc_init_array.__stub
                0x00000000037f8a50       0x24 linker stubs
 *(.text.*personality*)
 *(.gnu.warning)
 *(.glue_7t)
 .glue_7t       0x00000000037f8a80        0x0 linker stubs
 *(.glue_7)
 .glue_7        0x00000000037f8a80        0x0 linker stubs
 *(.vfp11_veneer)
 .vfp11_veneer  0x00000000037f8a80        0x0 linker stubs
                0x00000000037f8a80                . = ALIGN (0x4)

.v4_bx          0x00000000037f8a80        0x0
 .v4_bx         0x00000000037f8a80        0x0 linker stubs

.iplt           0x00000000037f8a80        0x0
 .iplt          0x00000000037f8a80        0x0 /home/flerovium/devkitPro/devkitARM/bin/../lib/gcc/arm-none-eabi/5.3.0/../../../../arm-none-eabi/lib/ds_arm7_crt0.o

.fini           0x00000000037f8a80       0x18
 *(.fini)
 .fini          0x00000000037f8a80        0xc /home/flerovium/devkitPro/devkitARM/bin/../lib/gcc/arm-none-eabi/5.3.0/crti.o
                0x00000000037f8a80                _fini
 .fini          0x00000000037f8a8c        0xc /home/flerovium/devkitPro/devkitARM/bin/../lib/gcc/arm-none-eabi/5.3.0/crtn.o
                0x00000000037f8a98                __text_end = .

.rodata         0x00000000037f8a98        0x0
 *(.rodata)
 *all.rodata*(*)
 *(.roda)
 *(.rodata.*)
 *(.gnu.linkonce.r*)
                0x00000000037f8a98                . = ALIGN (0x4)

.ARM.extab
 *(.ARM.extab* .gnu.linkonce.armextab.*)
                0x00000000037f8a98                __exidx_start = .

.ARM.exidx
 *(.ARM.exidx* .gnu.linkonce.armexidx.*)
                0x00000000037f8a98                __exidx_end = .
                0x00000000037f8a98                . = ALIGN (0x4)
                0x00000000037f8a98                PROVIDE (__preinit_array_start, .)

.preinit_array
 *(.preinit_array)
                0x00000000037f8a98                PROVIDE (__preinit_array_end, .)
                0x00000000037f8a98                PROVIDE (__init_array_start, .)

.init_array     0x00000000037f8a98        0x4
 *(.init_array)
 .init_array    0x00000000037f8a98        0x4 /home/flerovium/devkitPro/devkitARM/bin/../lib/gcc/arm-none-eabi/5.3.0/crtbegin.o
                0x00000000037f8a9c                PROVIDE (__init_array_end, .)
                [!provide]                        PROVIDE (__fini_array_start, .)

.fini_array     0x00000000037f8a9c        0x4
 *(.fini_array)
 .fini_array    0x00000000037f8a9c        0x4 /home/flerovium/devkitPro/devkitARM/bin/../lib/gcc/arm-none-eabi/5.3.0/crtbegin.o
                [!provide]                        PROVIDE (__fini_array_end, .)

.ctors          0x00000000037f8aa0        0x0
 *crtbegin.o(.ctors)
 *(EXCLUDE_FILE(*crtend.o) .ctors)
 *(SORT(.ctors.*))
 *(.ctors)
                0x00000000037f8aa0                . = ALIGN (0x4)

.dtors          0x00000000037f8aa0        0x0
 *crtbegin.o(.dtors)
 *(EXCLUDE_FILE(*crtend.o) .dtors)
 *(SORT(.dtors.*))
 *(.dtors)
                0x00000000037f8aa0                . = ALIGN (0x4)

.eh_frame       0x00000000037f8aa0        0x4
 *(.eh_frame)
 .eh_frame      0x00000000037f8aa0        0x0 /home/flerovium/devkitPro/devkitARM/bin/../lib/gcc/arm-none-eabi/5.3.0/crtbegin.o
 .eh_frame      0x00000000037f8aa0        0x4 /home/flerovium/devkitPro/devkitARM/bin/../lib/gcc/arm-none-eabi/5.3.0/crtend.o
                0x00000000037f8aa4                . = ALIGN (0x4)

.rel.dyn        0x00000000037f8aa4        0x0
 .rel.iplt      0x00000000037f8aa4        0x0 /home/flerovium/devkitPro/devkitARM/bin/../lib/gcc/arm-none-eabi/5.3.0/../../../../arm-none-eabi/lib/ds_arm7_crt0.o

.gcc_except_table
                0x00000000037f8aa4        0x0
 *(.gcc_except_table)
                0x00000000037f8aa4                . = ALIGN (0x4)

.jcr            0x00000000037f8aa4        0x4
 *(.jcr)
 .jcr           0x00000000037f8aa4        0x0 /home/flerovium/devkitPro/devkitARM/bin/../lib/gcc/arm-none-eabi/5.3.0/crtbegin.o
 .jcr           0x00000000037f8aa4        0x4 /home/flerovium/devkitPro/devkitARM/bin/../lib/gcc/arm-none-eabi/5.3.0/crtend.o

.got
 *(.got.plt)
 *(.got)

.data           0x00000000037f8aa8        0x0
                0x00000000037f8aa8                __data_start = ABSOLUTE (.)
 *(.data)
 *(.data.*)
 *(.gnu.linkonce.d*)
                0x00000000037f8aa8                . = ALIGN (0x4)
                0x00000000037f8aa8                __data_end = ABSOLUTE (.)

.igot.plt       0x00000000037f8aa8        0x0
 .igot.plt      0x00000000037f8aa8        0x0 /home/flerovium/devkitPro/devkitARM/bin/../lib/gcc/arm-none-eabi/5.3.0/../../../../arm-none-eabi/lib/ds_arm7_crt0.o

.tm_clone_table
                0x00000000037f8aa8        0x0
 .tm_clone_table
                0x00000000037f8aa8        0x0 /home/flerovium/devkitPro/devkitARM/bin/../lib/gcc/arm-none-eabi/5.3.0/crtbegin.o
 .tm_clone_table
                0x00000000037f8aa8        0x0 /home/flerovium/devkitPro/devkitARM/bin/../lib/gcc/arm-none-eabi/5.3.0/crtend.o

.bss            0x00000000037f8aa8      0x1cc
                0x00000000037f8aa8                __bss_start = ABSOLUTE (.)
                0x00000000037f8aa8                __bss_start__ = ABSOLUTE (.)
 *(.dynbss)
 *(.gnu.linkonce.b*)
 *(.bss*)
 .bss           0x00000000037f8aa8       0x1c /home/flerovium/devkitPro/devkitARM/bin/../lib/gcc/arm-none-eabi/5.3.0/crtbegin.o
 .bss           0x00000000037f8ac4        0x4 /home/flerovium/devkitPro/libnds/lib/libnds7.a(interrupts.o)
 .bss           0x00000000037f8ac8        0x4 /home/flerovium/devkitPro/libnds/lib/libnds7.a(i2c.o)
 .bss           0x00000000037f8acc       0x18 /home/flerovium/devkitPro/libnds/lib/libnds7.a(touch.o)
                0x00000000037f8acf                __dsimode
 *(COMMON)
 COMMON         0x00000000037f8ae4      0x190 /home/flerovium/devkitPro/libnds/lib/libnds7.a(interrupts.o)
                0x00000000037f8ae4                irqTableAUX
                0x00000000037f8bac                irqTable
                0x00000000037f8c74                . = ALIGN (0x4)
                0x00000000037f8c74                __bss_end__ = ABSOLUTE (.)
                0x00000000037f8c74                __end__ = ABSOLUTE (.)

.stab
 *(.stab)

.stabstr
 *(.stabstr)

.stab.excl
 *(.stab.excl)

.stab.exclstr
 *(.stab.exclstr)

.stab.index
 *(.stab.index)

.stab.indexstr
 *(.stab.indexstr)

.comment        0x0000000000000000       0x44
 *(.comment)
 .comment       0x0000000000000000       0x22 /home/flerovium/devkitPro/devkitARM/bin/../lib/gcc/arm-none-eabi/5.3.0/crtbegin.o
                                         0x23 (size before relaxing)
 .comment       0x0000000000000022       0x23 arm7.o
 .comment       0x0000000000000022       0x22 /home/flerovium/devkitPro/libnds/lib/libnds7.a(libnds_exit.arm.o)
                                         0x23 (size before relaxing)
 .comment       0x0000000000000044       0x23 /home/flerovium/devkitPro/libnds/lib/libnds7.a(interrupts.o)
 .comment       0x0000000000000044       0x23 /home/flerovium/devkitPro/libnds/lib/libnds7.a(i2c.o)
 .comment       0x0000000000000044       0x23 /home/flerovium/devkitPro/libnds/lib/libnds7.a(systemShutDown.o)
 .comment       0x0000000000000044       0x23 /home/flerovium/devkitPro/libnds/lib/libnds7.a(spi.o)
 .comment       0x0000000000000044       0x23 /home/flerovium/devkitPro/libnds/lib/libnds7.a(touch.o)
 .comment       0x0000000000000044       0x23 /home/flerovium/devkitPro/devkitARM/bin/../lib/gcc/arm-none-eabi/5.3.0/../../../../arm-none-eabi/lib/libg.a(lib_a-init.o)
 .comment       0x0000000000000044       0x23 /home/flerovium/devkitPro/devkitARM/bin/../lib/gcc/arm-none-eabi/5.3.0/crtend.o

.ARM.attributes
                0x0000000000000000       0x2b
 .ARM.attributes
                0x0000000000000000       0x16 /home/flerovium/devkitPro/devkitARM/bin/../lib/gcc/arm-none-eabi/5.3.0/../../../../arm-none-eabi/lib/ds_arm7_crt0.o
 .ARM.attributes
                0x0000000000000016       0x16 /home/flerovium/devkitPro/devkitARM/bin/../lib/gcc/arm-none-eabi/5.3.0/crti.o
 .ARM.attributes
                0x000000000000002c       0x30 /home/flerovium/devkitPro/devkitARM/bin/../lib/gcc/arm-none-eabi/5.3.0/crtbegin.o
 .ARM.attributes
                0x000000000000005c       0x2c arm7.o
 .ARM.attributes
                0x0000000000000088       0x2c /home/flerovium/devkitPro/libnds/lib/libnds7.a(libnds_exit.arm.o)
 .ARM.attributes
                0x00000000000000b4       0x2c /home/flerovium/devkitPro/libnds/lib/libnds7.a(interrupts.o)
 .ARM.attributes
                0x00000000000000e0       0x20 /home/flerovium/devkitPro/libnds/lib/libnds7.a(intrwait.o)
 .ARM.attributes
                0x0000000000000100       0x20 /home/flerovium/devkitPro/libnds/lib/libnds7.a(interruptDispatcher.o)
 .ARM.attributes
                0x0000000000000120       0x2c /home/flerovium/devkitPro/libnds/lib/libnds7.a(i2c.o)
 .ARM.attributes
                0x000000000000014c       0x2c /home/flerovium/devkitPro/libnds/lib/libnds7.a(systemShutDown.o)
 .ARM.attributes
                0x0000000000000178       0x2c /home/flerovium/devkitPro/libnds/lib/libnds7.a(spi.o)
 .ARM.attributes
                0x00000000000001a4       0x2c /home/flerovium/devkitPro/libnds/lib/libnds7.a(touch.o)
 .ARM.attributes
                0x00000000000001d0       0x20 /home/flerovium/devkitPro/libnds/lib/libnds7.a(biosCalls.o)
 .ARM.attributes
                0x00000000000001f0       0x30 /home/flerovium/devkitPro/devkitARM/bin/../lib/gcc/arm-none-eabi/5.3.0/../../../../arm-none-eabi/lib/libg.a(lib_a-init.o)
 .ARM.attributes
                0x0000000000000220       0x30 /home/flerovium/devkitPro/devkitARM/bin/../lib/gcc/arm-none-eabi/5.3.0/crtend.o
 .ARM.attributes
                0x0000000000000250       0x18 /home/flerovium/devkitPro/devkitARM/bin/../lib/gcc/arm-none-eabi/5.3.0/crtn.o

.debug
 *(.debug)

.line
 *(.line)

.debug_srcinfo
 *(.debug_srcinfo)

.debug_sfnames
 *(.debug_sfnames)

.debug_aranges  0x0000000000000000      0x140
 *(.debug_aranges)
 .debug_aranges
                0x0000000000000000       0x20 arm7.o
 .debug_aranges
                0x0000000000000020       0x20 /home/flerovium/devkitPro/libnds/lib/libnds7.a(libnds_exit.arm.o)
 .debug_aranges
                0x0000000000000040       0x20 /home/flerovium/devkitPro/libnds/lib/libnds7.a(interrupts.o)
 .debug_aranges
                0x0000000000000060       0x20 /home/flerovium/devkitPro/libnds/lib/libnds7.a(intrwait.o)
 .debug_aranges
                0x0000000000000080       0x20 /home/flerovium/devkitPro/libnds/lib/libnds7.a(interruptDispatcher.o)
 .debug_aranges
                0x00000000000000a0       0x20 /home/flerovium/devkitPro/libnds/lib/libnds7.a(i2c.o)
 .debug_aranges
                0x00000000000000c0       0x20 /home/flerovium/devkitPro/libnds/lib/libnds7.a(systemShutDown.o)
 .debug_aranges
                0x00000000000000e0       0x20 /home/flerovium/devkitPro/libnds/lib/libnds7.a(spi.o)
 .debug_aranges
                0x0000000000000100       0x20 /home/flerovium/devkitPro/libnds/lib/libnds7.a(touch.o)
 .debug_aranges
                0x0000000000000120       0x20 /home/flerovium/devkitPro/libnds/lib/libnds7.a(biosCalls.o)

.debug_pubnames
 *(.debug_pubnames)

.debug_info     0x0000000000000000     0x26be
 *(.debug_info)
 .debug_info    0x0000000000000000      0x1b3 arm7.o
 .debug_info    0x00000000000001b3      0x2ae /home/flerovium/devkitPro/libnds/lib/libnds7.a(libnds_exit.arm.o)
 .debug_info    0x0000000000000461      0xae9 /home/flerovium/devkitPro/libnds/lib/libnds7.a(interrupts.o)
 .debug_info    0x0000000000000f4a       0xca /home/flerovium/devkitPro/libnds/lib/libnds7.a(intrwait.o)
 .debug_info    0x0000000000001014       0xd7 /home/flerovium/devkitPro/libnds/lib/libnds7.a(interruptDispatcher.o)
 .debug_info    0x00000000000010eb      0x415 /home/flerovium/devkitPro/libnds/lib/libnds7.a(i2c.o)
 .debug_info    0x0000000000001500      0x21e /home/flerovium/devkitPro/libnds/lib/libnds7.a(systemShutDown.o)
 .debug_info    0x000000000000171e      0x284 /home/flerovium/devkitPro/libnds/lib/libnds7.a(spi.o)
 .debug_info    0x00000000000019a2      0xc4f /home/flerovium/devkitPro/libnds/lib/libnds7.a(touch.o)
 .debug_info    0x00000000000025f1       0xcd /home/flerovium/devkitPro/libnds/lib/libnds7.a(biosCalls.o)

.debug_abbrev   0x0000000000000000      0xcb5
 *(.debug_abbrev)
 .debug_abbrev  0x0000000000000000       0xbe arm7.o
 .debug_abbrev  0x00000000000000be      0x13d /home/flerovium/devkitPro/libnds/lib/libnds7.a(libnds_exit.arm.o)
 .debug_abbrev  0x00000000000001fb      0x317 /home/flerovium/devkitPro/libnds/lib/libnds7.a(interrupts.o)
 .debug_abbrev  0x0000000000000512       0x14 /home/flerovium/devkitPro/libnds/lib/libnds7.a(intrwait.o)
 .debug_abbrev  0x0000000000000526       0x14 /home/flerovium/devkitPro/libnds/lib/libnds7.a(interruptDispatcher.o)
 .debug_abbrev  0x000000000000053a      0x1d7 /home/flerovium/devkitPro/libnds/lib/libnds7.a(i2c.o)
 .debug_abbrev  0x0000000000000711       0xb8 /home/flerovium/devkitPro/libnds/lib/libnds7.a(systemShutDown.o)
 .debug_abbrev  0x00000000000007c9      0x177 /home/flerovium/devkitPro/libnds/lib/libnds7.a(spi.o)
 .debug_abbrev  0x0000000000000940      0x361 /home/flerovium/devkitPro/libnds/lib/libnds7.a(touch.o)
 .debug_abbrev  0x0000000000000ca1       0x14 /home/flerovium/devkitPro/libnds/lib/libnds7.a(biosCalls.o)

.debug_line     0x0000000000000000     0x122e
 *(.debug_line)
 .debug_line    0x0000000000000000       0xbf arm7.o
 .debug_line    0x00000000000000bf      0x216 /home/flerovium/devkitPro/libnds/lib/libnds7.a(libnds_exit.arm.o)
 .debug_line    0x00000000000002d5      0x393 /home/flerovium/devkitPro/libnds/lib/libnds7.a(interrupts.o)
 .debug_line    0x0000000000000668       0x9d /home/flerovium/devkitPro/libnds/lib/libnds7.a(intrwait.o)
 .debug_line    0x0000000000000705       0xd3 /home/flerovium/devkitPro/libnds/lib/libnds7.a(interruptDispatcher.o)
 .debug_line    0x00000000000007d8      0x231 /home/flerovium/devkitPro/libnds/lib/libnds7.a(i2c.o)
 .debug_line    0x0000000000000a09      0x13e /home/flerovium/devkitPro/libnds/lib/libnds7.a(systemShutDown.o)
 .debug_line    0x0000000000000b47      0x1db /home/flerovium/devkitPro/libnds/lib/libnds7.a(spi.o)
 .debug_line    0x0000000000000d22      0x441 /home/flerovium/devkitPro/libnds/lib/libnds7.a(touch.o)
 .debug_line    0x0000000000001163       0xcb /home/flerovium/devkitPro/libnds/lib/libnds7.a(biosCalls.o)

.debug_frame    0x0000000000000000      0x4cc
 *(.debug_frame)
 .debug_frame   0x0000000000000000       0x2c arm7.o
 .debug_frame   0x000000000000002c       0x3c /home/flerovium/devkitPro/libnds/lib/libnds7.a(libnds_exit.arm.o)
 .debug_frame   0x0000000000000068      0x170 /home/flerovium/devkitPro/libnds/lib/libnds7.a(interrupts.o)
 .debug_frame   0x00000000000001d8      0x104 /home/flerovium/devkitPro/libnds/lib/libnds7.a(i2c.o)
 .debug_frame   0x00000000000002dc       0x28 /home/flerovium/devkitPro/libnds/lib/libnds7.a(systemShutDown.o)
 .debug_frame   0x0000000000000304       0x48 /home/flerovium/devkitPro/libnds/lib/libnds7.a(spi.o)
 .debug_frame   0x000000000000034c      0x180 /home/flerovium/devkitPro/libnds/lib/libnds7.a(touch.o)

.debug_str      0x0000000000000000      0xe0c
 *(.debug_str)
 .debug_str     0x0000000000000000      0x245 arm7.o
                                        0x285 (size before relaxing)
 .debug_str     0x0000000000000245      0x1f2 /home/flerovium/devkitPro/libnds/lib/libnds7.a(libnds_exit.arm.o)
                                        0x2b4 (size before relaxing)
 .debug_str     0x0000000000000437      0x48b /home/flerovium/devkitPro/libnds/lib/libnds7.a(interrupts.o)
                                        0x699 (size before relaxing)
 .debug_str     0x00000000000008c2       0xe7 /home/flerovium/devkitPro/libnds/lib/libnds7.a(i2c.o)
                                        0x271 (size before relaxing)
 .debug_str     0x00000000000009a9       0x70 /home/flerovium/devkitPro/libnds/lib/libnds7.a(systemShutDown.o)
                                        0x369 (size before relaxing)
 .debug_str     0x0000000000000a19       0x85 /home/flerovium/devkitPro/libnds/lib/libnds7.a(spi.o)
                                        0x2cc (size before relaxing)
 .debug_str     0x0000000000000a9e      0x36e /home/flerovium/devkitPro/libnds/lib/libnds7.a(touch.o)
                                        0x57a (size before relaxing)

.debug_loc      0x0000000000000000      0xeee
 *(.debug_loc)
 .debug_loc     0x0000000000000000       0x2c arm7.o
 .debug_loc     0x000000000000002c       0x3f /home/flerovium/devkitPro/libnds/lib/libnds7.a(libnds_exit.arm.o)
 .debug_loc     0x000000000000006b      0x33d /home/flerovium/devkitPro/libnds/lib/libnds7.a(interrupts.o)
 .debug_loc     0x00000000000003a8      0x17b /home/flerovium/devkitPro/libnds/lib/libnds7.a(i2c.o)
 .debug_loc     0x0000000000000523       0xde /home/flerovium/devkitPro/libnds/lib/libnds7.a(spi.o)
 .debug_loc     0x0000000000000601      0x8ed /home/flerovium/devkitPro/libnds/lib/libnds7.a(touch.o)

.debug_macinfo
 *(.debug_macinfo)

.debug_weaknames
 *(.debug_weaknames)

.debug_funcnames
 *(.debug_funcnames)

.debug_typenames
 *(.debug_typenames)

.debug_varnames
 *(.debug_varnames)

.stack          0x0000000000080000        0x0
                0x0000000000080000                _stack = .
 *(.stack)
LOAD /home/flerovium/devkitPro/devkitARM/bin/../lib/gcc/arm-none-eabi/5.3.0/../../../../arm-none-eabi/lib/ds_arm7_crt0.o
LOAD /home/flerovium/devkitPro/devkitARM/bin/../lib/gcc/arm-none-eabi/5.3.0/crti.o
LOAD /home/flerovium/devkitPro/devkitARM/bin/../lib/gcc/arm-none-eabi/5.3.0/crtbegin.o
LOAD arm7.o
LOAD /home/flerovium/devkitPro/libnds/lib/libdswifi7.a
LOAD /home/flerovium/devkitPro/libnds/lib/libmm7.a
LOAD /home/flerovium/devkitPro/libnds/lib/libnds7.a
START GROUP
LOAD /home/flerovium/devkitPro/devkitARM/bin/../lib/gcc/arm-none-eabi/5.3.0/libgcc.a
LOAD /home/flerovium/devkitPro/devkitARM/bin/../lib/gcc/arm-none-eabi/5.3.0/../../../../arm-none-eabi/lib/libg.a
LOAD /home/flerovium/devkitPro/devkitARM/bin/../lib/gcc/arm-none-eabi/5.3.0/../../../../arm-none-eabi/lib/libc.a
LOAD /home/flerovium/devkitPro/devkitARM/bin/../lib/gcc/arm-none-eabi/5.3.0/../../../../arm-none-eabi/lib/libsysbase.a
END GROUP
LOAD /home/flerovium/devkitPro/devkitARM/bin/../lib/gcc/arm-none-eabi/5.3.0/crtend.o
LOAD /home/flerovium/devkitPro/devkitARM/bin/../lib/gcc/arm-none-eabi/5.3.0/crtn.o
OUTPUT(/home/flerovium/Desktop/NoDS/tests/nds/fifo-basic/arm7/fifo-basic.elf elf32-littlearm)

.debug_ranges   0x0000000000000000      0x158
 .debug_ranges  0x0000000000000000       0x10 arm7.o
 .debug_ranges  0x0000000000000010       0xd8 /home/flerovium/devkitPro/libnds/lib/libnds7.a(interrupts.o)
 .debug_ranges  0x00000000000000e8       0x30 /home/flerovium/devkitPro/libnds/lib/libnds7.a(spi.o)
 .debug_ranges  0x0000000000000118       0x40 /home/flerovium/devkitPro/libnds/lib/libnds7.a(touch.o)
